target datalayout = "e-m:e-p270:32:32-p271:32:32-p272:64:64-i64:64-i128:128-f80:128-n8:16:32:64-S128"
target triple = "x86_64-pc-linux-gnu"

@stderr = external global ptr, align 8
@.str.150 = private unnamed_addr constant [4 x i8] c"all\00", align 1
@.str.174 = private unnamed_addr constant [30 x i8] c"invalid range `%s', too long\0A\00", align 1
@.str.175 = private unnamed_addr constant [4 x i8] c"odd\00", align 1
@.str.176 = private unnamed_addr constant [5 x i8] c"even\00", align 1
@.str.177 = private unnamed_addr constant [33 x i8] c"unrecognized range keyword `%s'\0A\00", align 1
@.str.178 = private unnamed_addr constant [47 x i8] c"invalid character at `%s' after range at `%s'\0A\00", align 1
@.str.179 = private unnamed_addr constant [40 x i8] c"missing width at `%s' in range at `%s'\0A\00", align 1
@.str.180 = private unnamed_addr constant [47 x i8] c"invalid character at `%s' after index at `%s'\0A\00", align 1

; Function Attrs: inlinehint nounwind uwtable
define internal i32 @hwloc_calc_parse_range(ptr noundef %0, ptr noundef %1, ptr noundef %2, ptr noundef %3, ptr noundef %4, ptr noundef %5, i32 noundef %6) #2 {
  %8 = alloca i32, align 4
  %9 = alloca ptr, align 8
  %10 = alloca ptr, align 8
  %11 = alloca ptr, align 8
  %12 = alloca ptr, align 8
  %13 = alloca ptr, align 8
  %14 = alloca ptr, align 8
  %15 = alloca i32, align 4
  %16 = alloca [65 x i8], align 16
  %17 = alloca i64, align 8
  %18 = alloca ptr, align 8
  %19 = alloca ptr, align 8
  %20 = alloca ptr, align 8
  %21 = alloca i64, align 8
  %22 = alloca i64, align 8
  %23 = alloca i64, align 8
  %24 = alloca i32, align 4
  %25 = alloca i32, align 4
  store ptr %0, ptr %9, align 8, !tbaa !4
  store ptr %1, ptr %10, align 8, !tbaa !51
  store ptr %2, ptr %11, align 8, !tbaa !51
  store ptr %3, ptr %12, align 8, !tbaa !51
  store ptr %4, ptr %13, align 8, !tbaa !51
  store ptr %5, ptr %14, align 8, !tbaa !13
  store i32 %6, ptr %15, align 4, !tbaa !11
  call void @llvm.lifetime.start.p0(i64 65, ptr %16) #11
  call void @llvm.lifetime.start.p0(i64 8, ptr %17) #11
  call void @llvm.lifetime.start.p0(i64 8, ptr %18) #11
  call void @llvm.lifetime.start.p0(i64 8, ptr %19) #11
  call void @llvm.lifetime.start.p0(i64 8, ptr %20) #11
  call void @llvm.lifetime.start.p0(i64 8, ptr %21) #11
  call void @llvm.lifetime.start.p0(i64 8, ptr %22) #11
  call void @llvm.lifetime.start.p0(i64 8, ptr %23) #11
  call void @llvm.lifetime.start.p0(i64 4, ptr %24) #11
  %26 = load ptr, ptr %9, align 8, !tbaa !4
  %27 = call ptr @strchr(ptr noundef %26, i32 noundef 46) #12
  store ptr %27, ptr %18, align 8, !tbaa !4
  %28 = load ptr, ptr %18, align 8, !tbaa !4
  %29 = load ptr, ptr %14, align 8, !tbaa !13
  store ptr %28, ptr %29, align 8, !tbaa !4
  %30 = load ptr, ptr %18, align 8, !tbaa !4
  %31 = icmp ne ptr %30, null
  br i1 %31, label %32, label %38

32:                                               ; preds = %7
  %33 = load ptr, ptr %18, align 8, !tbaa !4
  %34 = load ptr, ptr %9, align 8, !tbaa !4
  %35 = ptrtoint ptr %33 to i64
  %36 = ptrtoint ptr %34 to i64
  %37 = sub i64 %35, %36
  store i64 %37, ptr %17, align 8, !tbaa !15
  br label %41

38:                                               ; preds = %7
  %39 = load ptr, ptr %9, align 8, !tbaa !4
  %40 = call i64 @strlen(ptr noundef %39) #12
  store i64 %40, ptr %17, align 8, !tbaa !15
  br label %41

41:                                               ; preds = %38, %32
  %42 = load i64, ptr %17, align 8, !tbaa !15
  %43 = icmp uge i64 %42, 65
  br i1 %43, label %44, label %52

44:                                               ; preds = %41
  %45 = load i32, ptr %15, align 4, !tbaa !11
  %46 = icmp sge i32 %45, 0
  br i1 %46, label %47, label %51

47:                                               ; preds = %44
  %48 = load ptr, ptr @stderr, align 8, !tbaa !9
  %49 = load ptr, ptr %9, align 8, !tbaa !4
  %50 = call i32 (ptr, ptr, ...) @fprintf(ptr noundef %48, ptr noundef @.str.174, ptr noundef %49) #11
  br label %51

51:                                               ; preds = %47, %44
  store i32 -1, ptr %8, align 4
  store i32 1, ptr %25, align 4
  br label %202

52:                                               ; preds = %41
  %53 = getelementptr inbounds [65 x i8], ptr %16, i64 0, i64 0
  %54 = load ptr, ptr %9, align 8, !tbaa !4
  %55 = load i64, ptr %17, align 8, !tbaa !15
  call void @llvm.memcpy.p0.p0.i64(ptr align 16 %53, ptr align 1 %54, i64 %55, i1 false)
  %56 = load i64, ptr %17, align 8, !tbaa !15
  %57 = getelementptr inbounds nuw [65 x i8], ptr %16, i64 0, i64 %56
  store i8 0, ptr %57, align 1, !tbaa !23
  %58 = call ptr @__ctype_b_loc() #14
  %59 = load ptr, ptr %58, align 8, !tbaa !102
  %60 = getelementptr inbounds [65 x i8], ptr %16, i64 0, i64 0
  %61 = load i8, ptr %60, align 16, !tbaa !23
  %62 = sext i8 %61 to i32
  %63 = sext i32 %62 to i64
  %64 = getelementptr inbounds i16, ptr %59, i64 %63
  %65 = load i16, ptr %64, align 2, !tbaa !104
  %66 = zext i16 %65 to i32
  %67 = and i32 %66, 2048
  %68 = icmp ne i32 %67, 0
  br i1 %68, label %104, label %69

69:                                               ; preds = %52
  %70 = getelementptr inbounds [65 x i8], ptr %16, i64 0, i64 0
  %71 = call i32 @strncmp(ptr noundef %70, ptr noundef @.str.150, i64 noundef 3) #12
  %72 = icmp ne i32 %71, 0
  br i1 %72, label %78, label %73

73:                                               ; preds = %69
  %74 = load ptr, ptr %10, align 8, !tbaa !51
  store i32 0, ptr %74, align 4, !tbaa !11
  %75 = load ptr, ptr %11, align 8, !tbaa !51
  store i32 -1, ptr %75, align 4, !tbaa !11
  %76 = load ptr, ptr %12, align 8, !tbaa !51
  store i32 1, ptr %76, align 4, !tbaa !11
  %77 = load ptr, ptr %13, align 8, !tbaa !51
  store i32 0, ptr %77, align 4, !tbaa !11
  store i32 0, ptr %8, align 4
  store i32 1, ptr %25, align 4
  br label %202

78:                                               ; preds = %69
  %79 = getelementptr inbounds [65 x i8], ptr %16, i64 0, i64 0
  %80 = call i32 @strncmp(ptr noundef %79, ptr noundef @.str.175, i64 noundef 3) #12
  %81 = icmp ne i32 %80, 0
  br i1 %81, label %87, label %82

82:                                               ; preds = %78
  %83 = load ptr, ptr %10, align 8, !tbaa !51
  store i32 1, ptr %83, align 4, !tbaa !11
  %84 = load ptr, ptr %11, align 8, !tbaa !51
  store i32 -1, ptr %84, align 4, !tbaa !11
  %85 = load ptr, ptr %12, align 8, !tbaa !51
  store i32 2, ptr %85, align 4, !tbaa !11
  %86 = load ptr, ptr %13, align 8, !tbaa !51
  store i32 0, ptr %86, align 4, !tbaa !11
  store i32 0, ptr %8, align 4
  store i32 1, ptr %25, align 4
  br label %202

87:                                               ; preds = %78
  %88 = getelementptr inbounds [65 x i8], ptr %16, i64 0, i64 0
  %89 = call i32 @strncmp(ptr noundef %88, ptr noundef @.str.176, i64 noundef 4) #12
  %90 = icmp ne i32 %89, 0
  br i1 %90, label %96, label %91

91:                                               ; preds = %87
  %92 = load ptr, ptr %10, align 8, !tbaa !51
  store i32 0, ptr %92, align 4, !tbaa !11
  %93 = load ptr, ptr %11, align 8, !tbaa !51
  store i32 -1, ptr %93, align 4, !tbaa !11
  %94 = load ptr, ptr %12, align 8, !tbaa !51
  store i32 2, ptr %94, align 4, !tbaa !11
  %95 = load ptr, ptr %13, align 8, !tbaa !51
  store i32 0, ptr %95, align 4, !tbaa !11
  store i32 0, ptr %8, align 4
  store i32 1, ptr %25, align 4
  br label %202

96:                                               ; preds = %87
  %97 = load i32, ptr %15, align 4, !tbaa !11
  %98 = icmp sge i32 %97, 0
  br i1 %98, label %99, label %103

99:                                               ; preds = %96
  %100 = load ptr, ptr @stderr, align 8, !tbaa !9
  %101 = getelementptr inbounds [65 x i8], ptr %16, i64 0, i64 0
  %102 = call i32 (ptr, ptr, ...) @fprintf(ptr noundef %100, ptr noundef @.str.177, ptr noundef %101) #11
  br label %103

103:                                              ; preds = %99, %96
  store i32 -1, ptr %8, align 4
  store i32 1, ptr %25, align 4
  br label %202

104:                                              ; preds = %52
  %105 = getelementptr inbounds [65 x i8], ptr %16, i64 0, i64 0
  %106 = call i64 @strtol(ptr noundef %105, ptr noundef %19, i32 noundef 10) #11
  store i64 %106, ptr %21, align 8, !tbaa !15
  store i64 1, ptr %23, align 8, !tbaa !15
  store i32 0, ptr %24, align 4, !tbaa !11
  %107 = load ptr, ptr %19, align 8, !tbaa !4
  %108 = load i8, ptr %107, align 1, !tbaa !23
  %109 = sext i8 %108 to i32
  %110 = icmp eq i32 %109, 45
  br i1 %110, label %111, label %140

111:                                              ; preds = %104
  %112 = load ptr, ptr %19, align 8, !tbaa !4
  %113 = getelementptr inbounds i8, ptr %112, i64 1
  %114 = call i64 @strtol(ptr noundef %113, ptr noundef %20, i32 noundef 10) #11
  store i64 %114, ptr %22, align 8, !tbaa !15
  %115 = load ptr, ptr %20, align 8, !tbaa !4
  %116 = load i8, ptr %115, align 1, !tbaa !23
  %117 = icmp ne i8 %116, 0
  br i1 %117, label %118, label %127

118:                                              ; preds = %111
  %119 = load i32, ptr %15, align 4, !tbaa !11
  %120 = icmp sge i32 %119, 0
  br i1 %120, label %121, label %126

121:                                              ; preds = %118
  %122 = load ptr, ptr @stderr, align 8, !tbaa !9
  %123 = load ptr, ptr %20, align 8, !tbaa !4
  %124 = getelementptr inbounds [65 x i8], ptr %16, i64 0, i64 0
  %125 = call i32 (ptr, ptr, ...) @fprintf(ptr noundef %122, ptr noundef @.str.178, ptr noundef %123, ptr noundef %124) #11
  br label %126

126:                                              ; preds = %121, %118
  store i32 -1, ptr %8, align 4
  store i32 1, ptr %25, align 4
  br label %202

127:                                              ; preds = %111
  %128 = load ptr, ptr %20, align 8, !tbaa !4
  %129 = load ptr, ptr %19, align 8, !tbaa !4
  %130 = getelementptr inbounds i8, ptr %129, i64 1
  %131 = icmp eq ptr %128, %130
  br i1 %131, label %132, label %133

132:                                              ; preds = %127
  store i64 -1, ptr %23, align 8, !tbaa !15
  br label %138

133:                                              ; preds = %127
  %134 = load i64, ptr %22, align 8, !tbaa !15
  %135 = load i64, ptr %21, align 8, !tbaa !15
  %136 = sub nsw i64 %134, %135
  %137 = add nsw i64 %136, 1
  store i64 %137, ptr %23, align 8, !tbaa !15
  br label %138

138:                                              ; preds = %133, %132
  br label %139

139:                                              ; preds = %138
  br label %192

140:                                              ; preds = %104
  %141 = load ptr, ptr %19, align 8, !tbaa !4
  %142 = load i8, ptr %141, align 1, !tbaa !23
  %143 = sext i8 %142 to i32
  %144 = icmp eq i32 %143, 58
  br i1 %144, label %145, label %177

145:                                              ; preds = %140
  store i32 1, ptr %24, align 4, !tbaa !11
  %146 = load ptr, ptr %19, align 8, !tbaa !4
  %147 = getelementptr inbounds i8, ptr %146, i64 1
  %148 = call i64 @strtol(ptr noundef %147, ptr noundef %20, i32 noundef 10) #11
  store i64 %148, ptr %23, align 8, !tbaa !15
  %149 = load ptr, ptr %20, align 8, !tbaa !4
  %150 = load i8, ptr %149, align 1, !tbaa !23
  %151 = icmp ne i8 %150, 0
  br i1 %151, label %152, label %161

152:                                              ; preds = %145
  %153 = load i32, ptr %15, align 4, !tbaa !11
  %154 = icmp sge i32 %153, 0
  br i1 %154, label %155, label %160

155:                                              ; preds = %152
  %156 = load ptr, ptr @stderr, align 8, !tbaa !9
  %157 = load ptr, ptr %20, align 8, !tbaa !4
  %158 = getelementptr inbounds [65 x i8], ptr %16, i64 0, i64 0
  %159 = call i32 (ptr, ptr, ...) @fprintf(ptr noundef %156, ptr noundef @.str.178, ptr noundef %157, ptr noundef %158) #11
  br label %160

160:                                              ; preds = %155, %152
  store i32 -1, ptr %8, align 4
  store i32 1, ptr %25, align 4
  br label %202

161:                                              ; preds = %145
  %162 = load ptr, ptr %20, align 8, !tbaa !4
  %163 = load ptr, ptr %19, align 8, !tbaa !4
  %164 = getelementptr inbounds i8, ptr %163, i64 1
  %165 = icmp eq ptr %162, %164
  br i1 %165, label %166, label %175

166:                                              ; preds = %161
  %167 = load i32, ptr %15, align 4, !tbaa !11
  %168 = icmp sge i32 %167, 0
  br i1 %168, label %169, label %174

169:                                              ; preds = %166
  %170 = load ptr, ptr @stderr, align 8, !tbaa !9
  %171 = load ptr, ptr %20, align 8, !tbaa !4
  %172 = getelementptr inbounds [65 x i8], ptr %16, i64 0, i64 0
  %173 = call i32 (ptr, ptr, ...) @fprintf(ptr noundef %170, ptr noundef @.str.179, ptr noundef %171, ptr noundef %172) #11
  br label %174

174:                                              ; preds = %169, %166
  store i32 -1, ptr %8, align 4
  store i32 1, ptr %25, align 4
  br label %202

175:                                              ; preds = %161
  br label %176

176:                                              ; preds = %175
  br label %191

177:                                              ; preds = %140
  %178 = load ptr, ptr %19, align 8, !tbaa !4
  %179 = load i8, ptr %178, align 1, !tbaa !23
  %180 = icmp ne i8 %179, 0
  br i1 %180, label %181, label %190

181:                                              ; preds = %177
  %182 = load i32, ptr %15, align 4, !tbaa !11
  %183 = icmp sge i32 %182, 0
  br i1 %183, label %184, label %189

184:                                              ; preds = %181
  %185 = load ptr, ptr @stderr, align 8, !tbaa !9
  %186 = load ptr, ptr %19, align 8, !tbaa !4
  %187 = getelementptr inbounds [65 x i8], ptr %16, i64 0, i64 0
  %188 = call i32 (ptr, ptr, ...) @fprintf(ptr noundef %185, ptr noundef @.str.180, ptr noundef %186, ptr noundef %187) #11
  br label %189

189:                                              ; preds = %184, %181
  store i32 -1, ptr %8, align 4
  store i32 1, ptr %25, align 4
  br label %202

190:                                              ; preds = %177
  br label %191

191:                                              ; preds = %190, %176
  br label %192

192:                                              ; preds = %191, %139
  %193 = load i64, ptr %21, align 8, !tbaa !15
  %194 = trunc i64 %193 to i32
  %195 = load ptr, ptr %10, align 8, !tbaa !51
  store i32 %194, ptr %195, align 4, !tbaa !11
  %196 = load i64, ptr %23, align 8, !tbaa !15
  %197 = trunc i64 %196 to i32
  %198 = load ptr, ptr %11, align 8, !tbaa !51
  store i32 %197, ptr %198, align 4, !tbaa !11
  %199 = load ptr, ptr %12, align 8, !tbaa !51
  store i32 1, ptr %199, align 4, !tbaa !11
  %200 = load i32, ptr %24, align 4, !tbaa !11
  %201 = load ptr, ptr %13, align 8, !tbaa !51
  store i32 %200, ptr %201, align 4, !tbaa !11
  store i32 0, ptr %8, align 4
  store i32 1, ptr %25, align 4
  br label %202

202:                                              ; preds = %192, %189, %174, %160, %126, %103, %91, %82, %73, %51
  call void @llvm.lifetime.end.p0(i64 4, ptr %24) #11
  call void @llvm.lifetime.end.p0(i64 8, ptr %23) #11
  call void @llvm.lifetime.end.p0(i64 8, ptr %22) #11
  call void @llvm.lifetime.end.p0(i64 8, ptr %21) #11
  call void @llvm.lifetime.end.p0(i64 8, ptr %20) #11
  call void @llvm.lifetime.end.p0(i64 8, ptr %19) #11
  call void @llvm.lifetime.end.p0(i64 8, ptr %18) #11
  call void @llvm.lifetime.end.p0(i64 8, ptr %17) #11
  call void @llvm.lifetime.end.p0(i64 65, ptr %16) #11
  %203 = load i32, ptr %8, align 4
  ret i32 %203
}