; Function Attrs: inlinehint nofree nounwind uwtable
define internal fastcc range(i32 -1, 1) i32 @hwloc_calc_parse_range(ptr noundef %0, ptr noundef nonnull writeonly captures(none) %1, ptr noundef nonnull writeonly captures(none) %2, ptr noundef nonnull writeonly captures(none) %3, ptr noundef nonnull writeonly captures(none) %4, ptr noundef nonnull writeonly captures(none) initializes((0, 8)) %5, i32 noundef %6) unnamed_addr #19 {
  %8 = alloca [65 x i8], align 16
  %9 = alloca ptr, align 8
  %10 = alloca ptr, align 8
  call void @llvm.lifetime.start.p0(i64 65, ptr nonnull %8) #25
  call void @llvm.lifetime.start.p0(i64 8, ptr nonnull %9) #25
  call void @llvm.lifetime.start.p0(i64 8, ptr nonnull %10) #25
  %11 = tail call ptr @strchr(ptr noundef nonnull dereferenceable(1) %0, i32 noundef 46) #26
  store ptr %11, ptr %5, align 8, !tbaa !4
  %.not = icmp eq ptr %11, null
  br i1 %.not, label %16, label %12

12:                                               ; preds = %7
  %13 = ptrtoint ptr %11 to i64
  %14 = ptrtoint ptr %0 to i64
  %15 = sub i64 %13, %14
  br label %18

16:                                               ; preds = %7
  %17 = tail call i64 @strlen(ptr noundef nonnull dereferenceable(1) %0) #26
  br label %18

18:                                               ; preds = %16, %12
  %.041 = phi i64 [ %15, %12 ], [ %17, %16 ]
  %19 = icmp ugt i64 %.041, 64
  br i1 %19, label %20, label %25

20:                                               ; preds = %18
  %21 = icmp sgt i32 %6, -1
  br i1 %21, label %22, label %88

22:                                               ; preds = %20
  %23 = load ptr, ptr @stderr, align 8, !tbaa !9
  %24 = tail call i32 (ptr, ptr, ...) @fprintf(ptr noundef %23, ptr noundef nonnull @.str.174, ptr noundef nonnull %0) #27
  br label %88

25:                                               ; preds = %18
  call void @llvm.memcpy.p0.p0.i64(ptr nonnull align 16 %8, ptr nonnull align 1 %0, i64 %.041, i1 false)
  %26 = getelementptr inbounds nuw [65 x i8], ptr %8, i64 0, i64 %.041
  store i8 0, ptr %26, align 1, !tbaa !11
  %27 = tail call ptr @__ctype_b_loc() #29
  %28 = load ptr, ptr %27, align 8, !tbaa !90
  %29 = load i8, ptr %8, align 16, !tbaa !11
  %30 = sext i8 %29 to i64
  %31 = getelementptr inbounds i16, ptr %28, i64 %30
  %32 = load i16, ptr %31, align 2, !tbaa !92
  %33 = and i16 %32, 2048
  %.not45 = icmp eq i16 %33, 0
  br i1 %.not45, label %34, label %45

34:                                               ; preds = %25
  %bcmp = call i32 @bcmp(ptr noundef nonnull dereferenceable(3) %8, ptr noundef nonnull dereferenceable(3) @.str.150, i64 3)
  %.not46 = icmp eq i32 %bcmp, 0
  br i1 %.not46, label %35, label %36

35:                                               ; preds = %34
  store i32 0, ptr %1, align 4, !tbaa !14
  store i32 -1, ptr %2, align 4, !tbaa !14
  store i32 1, ptr %3, align 4, !tbaa !14
  store i32 0, ptr %4, align 4, !tbaa !14
  br label %88

36:                                               ; preds = %34
  %bcmp47 = call i32 @bcmp(ptr noundef nonnull dereferenceable(3) %8, ptr noundef nonnull dereferenceable(3) @.str.175, i64 3)
  %.not48 = icmp eq i32 %bcmp47, 0
  br i1 %.not48, label %37, label %38

37:                                               ; preds = %36
  store i32 1, ptr %1, align 4, !tbaa !14
  store i32 -1, ptr %2, align 4, !tbaa !14
  store i32 2, ptr %3, align 4, !tbaa !14
  store i32 0, ptr %4, align 4, !tbaa !14
  br label %88

38:                                               ; preds = %36
  %lhsv = load i32, ptr %8, align 16
  %.not50 = icmp eq i32 %lhsv, 1852143205
  br i1 %.not50, label %39, label %40

39:                                               ; preds = %38
  store i32 0, ptr %1, align 4, !tbaa !14
  store i32 -1, ptr %2, align 4, !tbaa !14
  store i32 2, ptr %3, align 4, !tbaa !14
  store i32 0, ptr %4, align 4, !tbaa !14
  br label %88

40:                                               ; preds = %38
  %41 = icmp sgt i32 %6, -1
  br i1 %41, label %42, label %88

42:                                               ; preds = %40
  %43 = load ptr, ptr @stderr, align 8, !tbaa !9
  %44 = call i32 (ptr, ptr, ...) @fprintf(ptr noundef %43, ptr noundef nonnull @.str.177, ptr noundef nonnull %8) #27
  br label %88

45:                                               ; preds = %25
  %46 = call i64 @strtol(ptr noundef nonnull %8, ptr noundef nonnull %9, i32 noundef 10) #25
  %47 = load ptr, ptr %9, align 8, !tbaa !4
  %48 = load i8, ptr %47, align 1, !tbaa !11
  switch i8 %48, label %80 [
    i8 45, label %49
    i8 58, label %63
    i8 0, label %85
  ]

49:                                               ; preds = %45
  %50 = getelementptr inbounds nuw i8, ptr %47, i64 1
  %51 = call i64 @strtol(ptr noundef nonnull %50, ptr noundef nonnull %10, i32 noundef 10) #25
  %52 = load ptr, ptr %10, align 8, !tbaa !4
  %53 = load i8, ptr %52, align 1, !tbaa !11
  %.not53 = icmp eq i8 %53, 0
  br i1 %.not53, label %59, label %54

54:                                               ; preds = %49
  %55 = icmp sgt i32 %6, -1
  br i1 %55, label %56, label %88

56:                                               ; preds = %54
  %57 = load ptr, ptr @stderr, align 8, !tbaa !9
  %58 = call i32 (ptr, ptr, ...) @fprintf(ptr noundef %57, ptr noundef nonnull @.str.178, ptr noundef nonnull %52, ptr noundef nonnull %8) #27
  br label %88

59:                                               ; preds = %49
  %60 = icmp eq ptr %52, %50
  br i1 %60, label %85, label %61

61:                                               ; preds = %59
  %reass.sub = sub i64 %51, %46
  %62 = add i64 %reass.sub, 1
  br label %85

63:                                               ; preds = %45
  %64 = getelementptr inbounds nuw i8, ptr %47, i64 1
  %65 = call i64 @strtol(ptr noundef nonnull %64, ptr noundef nonnull %10, i32 noundef 10) #25
  %66 = load ptr, ptr %10, align 8, !tbaa !4
  %67 = load i8, ptr %66, align 1, !tbaa !11
  %.not52 = icmp eq i8 %67, 0
  br i1 %.not52, label %73, label %68

68:                                               ; preds = %63
  %69 = icmp sgt i32 %6, -1
  br i1 %69, label %70, label %88

70:                                               ; preds = %68
  %71 = load ptr, ptr @stderr, align 8, !tbaa !9
  %72 = call i32 (ptr, ptr, ...) @fprintf(ptr noundef %71, ptr noundef nonnull @.str.178, ptr noundef nonnull %66, ptr noundef nonnull %8) #27
  br label %88

73:                                               ; preds = %63
  %74 = icmp eq ptr %66, %64
  br i1 %74, label %75, label %85

75:                                               ; preds = %73
  %76 = icmp sgt i32 %6, -1
  br i1 %76, label %77, label %88

77:                                               ; preds = %75
  %78 = load ptr, ptr @stderr, align 8, !tbaa !9
  %79 = call i32 (ptr, ptr, ...) @fprintf(ptr noundef %78, ptr noundef nonnull @.str.179, ptr noundef nonnull %66, ptr noundef nonnull %8) #27
  br label %88

80:                                               ; preds = %45
  %81 = icmp sgt i32 %6, -1
  br i1 %81, label %82, label %88

82:                                               ; preds = %80
  %83 = load ptr, ptr @stderr, align 8, !tbaa !9
  %84 = call i32 (ptr, ptr, ...) @fprintf(ptr noundef %83, ptr noundef nonnull @.str.180, ptr noundef nonnull %47, ptr noundef nonnull %8) #27
  br label %88

85:                                               ; preds = %45, %59, %73, %61
  %.039 = phi i64 [ %62, %61 ], [ %65, %73 ], [ -1, %59 ], [ 1, %45 ]
  %.0 = phi i32 [ 0, %61 ], [ 1, %73 ], [ 0, %59 ], [ 0, %45 ]
  %86 = trunc i64 %46 to i32
  store i32 %86, ptr %1, align 4, !tbaa !14
  %87 = trunc i64 %.039 to i32
  store i32 %87, ptr %2, align 4, !tbaa !14
  store i32 1, ptr %3, align 4, !tbaa !14
  store i32 %.0, ptr %4, align 4, !tbaa !14
  br label %88

88:                                               ; preds = %80, %82, %75, %77, %68, %70, %54, %56, %40, %42, %20, %22, %85, %39, %37, %35
  %.040 = phi i32 [ 0, %85 ], [ 0, %39 ], [ 0, %37 ], [ 0, %35 ], [ -1, %22 ], [ -1, %20 ], [ -1, %42 ], [ -1, %40 ], [ -1, %56 ], [ -1, %54 ], [ -1, %70 ], [ -1, %68 ], [ -1, %77 ], [ -1, %75 ], [ -1, %82 ], [ -1, %80 ]
  call void @llvm.lifetime.end.p0(i64 8, ptr nonnull %10) #25
  call void @llvm.lifetime.end.p0(i64 8, ptr nonnull %9) #25
  call void @llvm.lifetime.end.p0(i64 65, ptr nonnull %8) #25
  ret i32 %.040
}